target datalayout = "e-m:e-p270:32:32-p271:32:32-p272:64:64-i64:64-i128:128-f80:128-n8:16:32:64-S128"
target triple = "x86_64-pc-linux-gnu"

%class.Symbol = type { i32, i16, [2 x i8] }

; Function Attrs: mustprogress nounwind uwtable
define linkonce_odr hidden noundef i64 @_Z13pointer_deltaPVKvS0_m(ptr noundef %0, ptr noundef %1, i64 noundef %2) #1 comdat {
  %4 = alloca ptr, align 8
  %5 = alloca ptr, align 8
  %6 = alloca i64, align 8
  store ptr %0, ptr %4, align 8
  store ptr %1, ptr %5, align 8
  store i64 %2, ptr %6, align 8
  %7 = load ptr, ptr %4, align 8
  %8 = ptrtoint ptr %7 to i64
  %9 = load ptr, ptr %5, align 8
  %10 = ptrtoint ptr %9 to i64
  %11 = sub i64 %8, %10
  %12 = load i64, ptr %6, align 8
  %13 = udiv i64 %11, %12
  ret i64 %13
}

; Function Attrs: mustprogress nounwind uwtable
define linkonce_odr hidden noundef i32 @_ZNK6Symbol6lengthEv(ptr noundef nonnull align 4 dereferenceable(8) %0) #1 comdat align 2 {
  %2 = alloca ptr, align 8
  store ptr %0, ptr %2, align 8
  %3 = load ptr, ptr %2, align 8
  %4 = getelementptr inbounds %class.Symbol, ptr %3, i32 0, i32 1
  %5 = load i16, ptr %4, align 4
  %6 = zext i16 %5 to i32
  ret i32 %6
}

; Function Attrs: mustprogress nounwind uwtable
define linkonce_odr hidden noundef i32 @_Z20pointer_delta_as_intIaEiPVKT_S2_(ptr noundef %0, ptr noundef %1) #1 comdat {
  %3 = alloca ptr, align 8
  %4 = alloca ptr, align 8
  %5 = alloca i64, align 8
  store ptr %0, ptr %3, align 8
  store ptr %1, ptr %4, align 8
  %6 = load ptr, ptr %3, align 8
  %7 = load ptr, ptr %4, align 8
  %8 = call noundef i64 @_Z13pointer_deltaPVKvS0_m(ptr noundef %6, ptr noundef %7, i64 noundef 1)
  store i64 %8, ptr %5, align 8
  %9 = load i64, ptr %5, align 8
  %10 = trunc i64 %9 to i32
  ret i32 %10
}

; Function Attrs: mustprogress nounwind uwtable
define linkonce_odr hidden noundef ptr @_ZN4UTF87strrchrEPKaia(ptr noundef %0, i32 noundef %1, i8 noundef signext %2) #1 comdat align 2 {
  %4 = alloca ptr, align 8
  %5 = alloca i32, align 4
  %6 = alloca i8, align 1
  store ptr %0, ptr %4, align 8
  store i32 %1, ptr %5, align 4
  store i8 %2, ptr %6, align 1
  br label %7

7:                                                ; preds = %23, %3
  %8 = load i32, ptr %5, align 4
  %9 = add nsw i32 %8, -1
  store i32 %9, ptr %5, align 4
  %10 = icmp sge i32 %9, 0
  br i1 %10, label %11, label %21

11:                                               ; preds = %7
  %12 = load ptr, ptr %4, align 8
  %13 = load i32, ptr %5, align 4
  %14 = sext i32 %13 to i64
  %15 = getelementptr inbounds i8, ptr %12, i64 %14
  %16 = load i8, ptr %15, align 1
  %17 = sext i8 %16 to i32
  %18 = load i8, ptr %6, align 1
  %19 = sext i8 %18 to i32
  %20 = icmp ne i32 %17, %19
  br label %21

21:                                               ; preds = %11, %7
  %22 = phi i1 [ false, %7 ], [ %20, %11 ]
  br i1 %22, label %23, label %24

23:                                               ; preds = %21
  br label %7, !llvm.loop !8

24:                                               ; preds = %21
  %25 = load i32, ptr %5, align 4
  %26 = icmp slt i32 %25, 0
  br i1 %26, label %27, label %28

27:                                               ; preds = %24
  br label %33

28:                                               ; preds = %24
  %29 = load ptr, ptr %4, align 8
  %30 = load i32, ptr %5, align 4
  %31 = sext i32 %30 to i64
  %32 = getelementptr inbounds i8, ptr %29, i64 %31
  br label %33

33:                                               ; preds = %28, %27
  %34 = phi ptr [ null, %27 ], [ %32, %28 ]
  ret ptr %34
}

; Function Attrs: mustprogress nounwind uwtable
define linkonce_odr hidden noundef ptr @_ZNK6Symbol4baseEv(ptr noundef nonnull align 4 dereferenceable(8) %0) #1 comdat align 2 {
  %2 = alloca ptr, align 8
  store ptr %0, ptr %2, align 8
  %3 = load ptr, ptr %2, align 8
  %4 = getelementptr inbounds %class.Symbol, ptr %3, i32 0, i32 2
  %5 = getelementptr inbounds [2 x i8], ptr %4, i64 0, i64 0
  ret ptr %5
}

; Function Attrs: mustprogress nounwind uwtable
define linkonce_odr hidden noundef i32 @_ZNK6Symbol11utf8_lengthEv(ptr noundef nonnull align 4 dereferenceable(8) %0) #1 comdat align 2 {
  %2 = alloca ptr, align 8
  store ptr %0, ptr %2, align 8
  %3 = load ptr, ptr %2, align 8
  %4 = call noundef i32 @_ZNK6Symbol6lengthEv(ptr noundef nonnull align 4 dereferenceable(8) %3)
  ret i32 %4
}

; Function Attrs: mustprogress nounwind uwtable
define hidden noundef ptr @_ZN11ClassLoader23package_from_class_nameEPK6SymbolPb(ptr noundef %0, ptr noundef %1) #1 align 2 {
  %3 = alloca ptr, align 8
  %4 = alloca ptr, align 8
  %5 = alloca ptr, align 8
  %6 = alloca i32, align 4
  %7 = alloca ptr, align 8
  %8 = alloca ptr, align 8
  %9 = alloca ptr, align 8
  store ptr %0, ptr %4, align 8
  store ptr %1, ptr %5, align 8
  %10 = load ptr, ptr %4, align 8
  %11 = icmp eq ptr %10, null
  br i1 %11, label %12, label %18

12:                                               ; preds = %2
  %13 = load ptr, ptr %5, align 8
  %14 = icmp ne ptr %13, null
  br i1 %14, label %15, label %17

15:                                               ; preds = %12
  %16 = load ptr, ptr %5, align 8
  store i8 1, ptr %16, align 1
  br label %17

17:                                               ; preds = %15, %12
  store ptr null, ptr %3, align 8
  br label %81

18:                                               ; preds = %2
  %19 = load ptr, ptr %4, align 8
  %20 = call noundef i32 @_ZNK6Symbol11utf8_lengthEv(ptr noundef nonnull align 4 dereferenceable(8) %19)
  store i32 %20, ptr %6, align 4
  %21 = load ptr, ptr %4, align 8
  %22 = call noundef ptr @_ZNK6Symbol4baseEv(ptr noundef nonnull align 4 dereferenceable(8) %21)
  store ptr %22, ptr %7, align 8
  %23 = load ptr, ptr %7, align 8
  store ptr %23, ptr %8, align 8
  %24 = load ptr, ptr %8, align 8
  %25 = load i32, ptr %6, align 4
  %26 = call noundef ptr @_ZN4UTF87strrchrEPKaia(ptr noundef %24, i32 noundef %25, i8 noundef signext 47)
  store ptr %26, ptr %9, align 8
  %27 = load ptr, ptr %9, align 8
  %28 = icmp eq ptr %27, null
  br i1 %28, label %29, label %30

29:                                               ; preds = %18
  store ptr null, ptr %3, align 8
  br label %81

30:                                               ; preds = %18
  %31 = load ptr, ptr %8, align 8
  %32 = load i8, ptr %31, align 1
  %33 = sext i8 %32 to i32
  %34 = icmp eq i32 %33, 91
  br i1 %34, label %35, label %62

35:                                               ; preds = %30
  br label %36

36:                                               ; preds = %48, %35
  %37 = load ptr, ptr %8, align 8
  %38 = getelementptr inbounds i8, ptr %37, i32 1
  store ptr %38, ptr %8, align 8
  br label %39

39:                                               ; preds = %36
  %40 = load ptr, ptr %8, align 8
  %41 = load ptr, ptr %9, align 8
  %42 = icmp ult ptr %40, %41
  br i1 %42, label %43, label %48

43:                                               ; preds = %39
  %44 = load ptr, ptr %8, align 8
  %45 = load i8, ptr %44, align 1
  %46 = sext i8 %45 to i32
  %47 = icmp eq i32 %46, 91
  br label %48

48:                                               ; preds = %43, %39
  %49 = phi i1 [ false, %39 ], [ %47, %43 ]
  br i1 %49, label %36, label %50, !llvm.loop !6

50:                                               ; preds = %48
  %51 = load ptr, ptr %8, align 8
  %52 = load i8, ptr %51, align 1
  %53 = sext i8 %52 to i32
  %54 = icmp eq i32 %53, 76
  br i1 %54, label %55, label %61

55:                                               ; preds = %50
  %56 = load ptr, ptr %5, align 8
  %57 = icmp ne ptr %56, null
  br i1 %57, label %58, label %60

58:                                               ; preds = %55
  %59 = load ptr, ptr %5, align 8
  store i8 1, ptr %59, align 1
  br label %60

60:                                               ; preds = %58, %55
  store ptr null, ptr %3, align 8
  br label %81

61:                                               ; preds = %50
  br label %62

62:                                               ; preds = %61, %30
  %63 = load ptr, ptr %8, align 8
  %64 = load ptr, ptr %9, align 8
  %65 = icmp uge ptr %63, %64
  br i1 %65, label %66, label %72

66:                                               ; preds = %62
  %67 = load ptr, ptr %5, align 8
  %68 = icmp ne ptr %67, null
  br i1 %68, label %69, label %71

69:                                               ; preds = %66
  %70 = load ptr, ptr %5, align 8
  store i8 1, ptr %70, align 1
  br label %71

71:                                               ; preds = %69, %66
  store ptr null, ptr %3, align 8
  br label %81

72:                                               ; preds = %62
  %73 = load ptr, ptr %4, align 8
  %74 = load ptr, ptr %8, align 8
  %75 = load ptr, ptr %7, align 8
  %76 = call noundef i32 @_Z20pointer_delta_as_intIaEiPVKT_S2_(ptr noundef %74, ptr noundef %75)
  %77 = load ptr, ptr %9, align 8
  %78 = load ptr, ptr %7, align 8
  %79 = call noundef i32 @_Z20pointer_delta_as_intIaEiPVKT_S2_(ptr noundef %77, ptr noundef %78)
  %80 = call noundef ptr @_ZN11SymbolTable10new_symbolEPK6Symbolii(ptr noundef %73, i32 noundef %76, i32 noundef %79)
  store ptr %80, ptr %3, align 8
  br label %81

81:                                               ; preds = %72, %71, %60, %29, %17
  %82 = load ptr, ptr %3, align 8
  ret ptr %82
}