; Function Attrs: mustprogress nounwind uwtable
define hidden noundef ptr @_ZN11ClassLoader23package_from_class_nameEPK6SymbolPb(ptr noundef %0, ptr noundef writeonly %1) local_unnamed_addr #0 align 2 {
  %3 = icmp eq ptr %0, null
  br i1 %3, label %4, label %6

4:                                                ; preds = %2
  %.not34 = icmp eq ptr %1, null
  br i1 %.not34, label %_ZN4UTF87strrchrEPKaia.exit.thread, label %5

5:                                                ; preds = %4
  store i8 1, ptr %1, align 1
  br label %_ZN4UTF87strrchrEPKaia.exit.thread

6:                                                ; preds = %2
  %7 = getelementptr inbounds i8, ptr %0, i64 4
  %8 = load i16, ptr %7, align 4
  %9 = getelementptr inbounds i8, ptr %0, i64 6
  %10 = zext i16 %8 to i64
  br label %11

11:                                               ; preds = %13, %6
  %indvars.iv.i = phi i64 [ %indvars.iv.next.i, %13 ], [ %10, %6 ]
  %12 = icmp slt i64 %indvars.iv.i, 1
  br i1 %12, label %_ZN4UTF87strrchrEPKaia.exit.thread, label %13

13:                                               ; preds = %11
  %indvars.iv.next.i = add nsw i64 %indvars.iv.i, -1
  %14 = and i64 %indvars.iv.next.i, 4294967295
  %15 = getelementptr inbounds i8, ptr %9, i64 %14
  %16 = load i8, ptr %15, align 1
  %.not.i = icmp eq i8 %16, 47
  br i1 %.not.i, label %17, label %11, !llvm.loop !6

17:                                               ; preds = %13
  %sext = shl i64 %indvars.iv.next.i, 32
  %18 = ashr exact i64 %sext, 32
  %19 = getelementptr inbounds i8, ptr %9, i64 %18
  %20 = load i8, ptr %9, align 1
  %21 = icmp eq i8 %20, 91
  br i1 %21, label %.preheader, label %29

.preheader:                                       ; preds = %17, %.preheader
  %.026 = phi ptr [ %22, %.preheader ], [ %9, %17 ]
  %22 = getelementptr inbounds i8, ptr %.026, i64 1
  %23 = icmp ult ptr %22, %19
  %24 = load i8, ptr %22, align 1
  %25 = icmp eq i8 %24, 91
  %or.cond = select i1 %23, i1 %25, i1 false
  br i1 %or.cond, label %.preheader, label %.critedge, !llvm.loop !8

.critedge:                                        ; preds = %.preheader
  %26 = icmp eq i8 %24, 76
  br i1 %26, label %27, label %29

27:                                               ; preds = %.critedge
  %.not33 = icmp eq ptr %1, null
  br i1 %.not33, label %_ZN4UTF87strrchrEPKaia.exit.thread, label %28

28:                                               ; preds = %27
  store i8 1, ptr %1, align 1
  br label %_ZN4UTF87strrchrEPKaia.exit.thread

29:                                               ; preds = %.critedge, %17
  %.1 = phi ptr [ %22, %.critedge ], [ %9, %17 ]
  %.not = icmp ult ptr %.1, %19
  br i1 %.not, label %32, label %30

30:                                               ; preds = %29
  %.not32 = icmp eq ptr %1, null
  br i1 %.not32, label %_ZN4UTF87strrchrEPKaia.exit.thread, label %31

31:                                               ; preds = %30
  store i8 1, ptr %1, align 1
  br label %_ZN4UTF87strrchrEPKaia.exit.thread

32:                                               ; preds = %29
  %33 = ptrtoint ptr %.1 to i64
  %34 = ptrtoint ptr %9 to i64
  %35 = sub i64 %33, %34
  %36 = trunc i64 %35 to i32
  %37 = trunc i64 %indvars.iv.next.i to i32
  %38 = tail call noundef ptr @_ZN11SymbolTable10new_symbolEPK6Symbolii(ptr noundef nonnull %0, i32 noundef %36, i32 noundef %37) #20
  br label %_ZN4UTF87strrchrEPKaia.exit.thread

_ZN4UTF87strrchrEPKaia.exit.thread:               ; preds = %11, %30, %31, %27, %28, %4, %5, %32
  %.0 = phi ptr [ %38, %32 ], [ null, %5 ], [ null, %4 ], [ null, %28 ], [ null, %27 ], [ null, %31 ], [ null, %30 ], [ null, %11 ]
  ret ptr %.0
}